; Function Attrs: mustprogress nofree norecurse nosync nounwind willreturn memory(argmem: read) uwtable
define hidden noundef zeroext i1 @_ZNK4goal13sat_preservedEv(ptr noundef nonnull readonly align 8 captures(none) dereferenceable(124) %0) local_unnamed_addr #14 align 2 {
  %2 = getelementptr inbounds nuw i8, ptr %0, i64 120
  %3 = load i32, ptr %2, align 8
  %4 = icmp ult i32 %3, 1073741824
  %.mask = and i32 %3, -1073741824
  %5 = icmp eq i32 %.mask, 1073741824
  %spec.select = or i1 %4, %5
  ret i1 %spec.select
}